; Function Attrs: nounwind uwtable
define internal range(i32 0, 2) i32 @ref_singleton_directed(ptr noundef %0, ptr noundef %1, i32 noundef %2) #0 {
  %4 = getelementptr inbounds nuw i8, ptr %0, i64 8
  %5 = load ptr, ptr %4, align 8
  %6 = getelementptr inbounds nuw i8, ptr %0, i64 16
  %7 = load ptr, ptr %6, align 8
  %8 = tail call fastcc i32 @ref_singleton(ptr noundef %0, ptr noundef %1, ptr noundef %5, ptr noundef %7, i32 noundef %2)
  %.not = icmp eq i32 %8, 0
  br i1 %.not, label %17, label %9

9:                                                ; preds = %3
  %10 = getelementptr inbounds nuw i8, ptr %0, i64 24
  %11 = load ptr, ptr %10, align 8
  %12 = getelementptr inbounds nuw i8, ptr %0, i64 32
  %13 = load ptr, ptr %12, align 8
  %14 = tail call fastcc i32 @ref_singleton(ptr noundef nonnull %0, ptr noundef %1, ptr noundef %11, ptr noundef %13, i32 noundef %2)
  %15 = icmp ne i32 %14, 0
  %16 = zext i1 %15 to i32
  br label %17

17:                                               ; preds = %9, %3
  %18 = phi i32 [ 0, %3 ], [ %16, %9 ]
  ret i32 %18
}